Certificate:
    Data:
        Version: 3 (0x2)
        Serial Number: 4 (0x4)
    Signature Algorithm: sha256WithRSAEncryption
        Issuer: C=FR, O=Overkiz, OU=Overkiz Apps CA, CN=Overkiz Apps CA
        Validity
            Not Before: Dec 13 14:40:23 2016 GMT
            Not After : Dec 12 14:40:23 2021 GMT
        Subject: O=Overkiz, OU=Overkiz App, CN=overkiz-installer
        Subject Public Key Info:
            Public Key Algorithm: rsaEncryption
                Public-Key: (2048 bit)
                Modulus:
                    00:a3:d3:8a:7c:a6:b9:21:21:e6:03:3b:5e:d8:be:
                    99:a1:76:d8:f9:86:3e:c4:18:7f:3b:7c:db:d1:05:
                    98:dc:c0:9c:5d:00:22:50:fc:11:13:af:6f:30:b9:
                    5c:0f:40:3b:9b:a2:0e:7c:af:25:89:e9:d8:37:7d:
                    9f:dd:e8:21:70:17:69:b8:d4:46:b2:9c:28:4b:86:
                    20:93:ff:56:c4:bc:e6:bc:b5:ca:25:0a:b4:72:ad:
                    1a:fb:bd:3a:46:9b:e3:b1:34:d4:f1:89:ad:42:38:
                    62:fe:a4:5b:7d:4c:f6:a2:50:cb:2e:73:7d:19:b5:
                    41:98:28:3a:49:05:b2:55:8f:1e:f5:3c:44:d2:99:
                    f5:82:6a:cc:78:dd:bf:14:75:48:1f:24:df:82:8c:
                    ae:9c:19:9d:84:84:ba:a2:fa:df:0b:cf:cf:82:9b:
                    e0:5a:67:da:61:bf:0c:85:3c:0e:ad:2a:dc:18:88:
                    95:da:83:f9:49:33:91:4d:5d:d0:c9:cb:30:6d:92:
                    d8:9c:c6:e8:30:42:b1:17:44:32:4f:ab:cc:f8:fc:
                    81:49:0b:54:b9:b9:7b:22:89:1b:0c:a1:32:a0:bf:
                    cb:bc:b2:be:f1:1d:fe:31:fc:4b:b4:94:1e:d8:e1:
                    6a:eb:9c:b2:77:1c:87:79:11:2d:74:2a:9f:4a:9a:
                    4e:f3
                Exponent: 65537 (0x10001)
        X509v3 extensions:
            X509v3 Basic Constraints: 
                CA:FALSE
            X509v3 Key Usage: critical
                Digital Signature, Key Encipherment
            X509v3 Extended Key Usage: 
                TLS Web Client Authentication
    Signature Algorithm: sha256WithRSAEncryption
         18:0f:a7:17:f3:2b:ad:dc:79:63:5a:79:13:05:2a:c1:96:be:
         bd:18:34:17:fb:8b:05:2e:7c:e4:02:8a:0f:87:98:17:96:d6:
         17:1e:dd:ed:69:ad:3c:cf:40:ee:81:5a:ee:9d:bc:67:ba:7a:
         65:57:ad:a7:38:ed:3a:f5:a7:55:d9:6c:8e:1e:ec:94:6b:3e:
         02:8b:15:ae:7d:c8:19:8b:27:c7:50:9a:e6:6c:ce:78:3d:bf:
         cf:66:5f:45:75:78:ef:be:9f:41:16:7d:78:7c:6c:45:53:b6:
         42:68:b2:c3:21:c6:e5:54:5a:cb:ec:a9:7a:c3:19:6f:d8:14:
         8b:d0:ec:ed:27:e2:b3:da:cb:e8:71:98:c4:2b:5d:3e:4c:66:
         5a:a0:f1:55:5e:61:e1:2e:b3:e8:09:71:f5:35:72:3f:eb:12:
         0b:d5:85:70:8d:83:5e:03:26:50:43:b2:c7:80:2f:ee:e4:d5:
         47:b8:3d:a1:43:6f:49:e3:d4:48:f0:d7:b6:2b:cf:4b:3a:cc:
         9e:87:bb:a4:69:94:f2:62:2d:d0:e1:4d:5e:1d:57:65:28:6e:
         f2:9c:84:6b:47:44:8f:3b:7f:05:0b:65:36:d7:48:d6:49:8f:
         fc:05:25:0d:cb:ce:43:7b:dc:d3:2e:1e:5e:46:28:ce:33:e6:
         50:eb:35:a3
-----BEGIN CERTIFICATE-----
MIIDRDCCAiygAwIBAgIBBDANBgkqhkiG9w0BAQsFADBTMQswCQYDVQQGEwJGUjEQ
MA4GA1UEChMHT3ZlcmtpejEYMBYGA1UECxMPT3ZlcmtpeiBBcHBzIENBMRgwFgYD
VQQDEw9PdmVya2l6IEFwcHMgQ0EwHhcNMTYxMjEzMTQ0MDIzWhcNMjExMjEyMTQ0
MDIzWjBEMRAwDgYDVQQKDAdPdmVya2l6MRQwEgYDVQQLDAtPdmVya2l6IEFwcDEa
MBgGA1UEAwwRb3Zlcmtpei1pbnN0YWxsZXIwggEiMA0GCSqGSIb3DQEBAQUAA4IB
DwAwggEKAoIBAQCj04p8prkhIeYDO17Yvpmhdtj5hj7EGH87fNvRBZjcwJxdACJQ
/BETr28wuVwPQDubog58ryWJ6dg3fZ/d6CFwF2m41EaynChLhiCT/1bEvOa8tcol
CrRyrRr7vTpGm+OxNNTxia1COGL+pFt9TPaiUMsuc30ZtUGYKDpJBbJVjx71PETS
mfWCasx43b8UdUgfJN+CjK6cGZ2EhLqi+t8Lz8+Cm+BaZ9phvwyFPA6tKtwYiJXa
g/lJM5FNXdDJyzBtkticxugwQrEXRDJPq8z4/IFJC1S5uXsiiRsMoTKgv8u8sr7x
Hf4x/Eu0lB7Y4WrrnLJ3HId5ES10Kp9Kmk7zAgMBAAGjMjAwMAkGA1UdEwQCMAAw
DgYDVR0PAQH/BAQDAgWgMBMGA1UdJQQMMAoGCCsGAQUFBwMCMA0GCSqGSIb3DQEB
CwUAA4IBAQAYD6cX8yut3HljWnkTBSrBlr69GDQX+4sFLnzkAooPh5gXltYXHt3t
aa08z0DugVrunbxnunplV62nOO069adV2WyOHuyUaz4CixWufcgZiyfHUJrmbM54
Pb/PZl9FdXjvvp9BFn14fGxFU7ZCaLLDIcblVFrL7Kl6wxlv2BSL0OztJ+Kz2svo
cZjEK10+TGZaoPFVXmHhLrPoCXH1NXI/6xIL1YVwjYNeAyZQQ7LHgC/u5NVHuD2h
Q29J49RI8Ne2K89LOsyeh7ukaZTyYi3Q4U1eHVdlKG7ynIRrR0SPO38FC2U210jW
SY/8BSUNy85De9zTLh5eRijOM+ZQ6zWj
-----END CERTIFICATE-----
